; Function Attrs: nounwind uwtable
define ptr @l_Lean_PrettyPrinter_Delaborator_parentProj_x3f___boxed(ptr noundef %0, ptr noundef %1, ptr noundef %2, ptr noundef %3, ptr noundef %4, ptr noundef %5, ptr noundef %6) local_unnamed_addr #0 {
  %8 = ptrtoint ptr %0 to i64
  %9 = lshr i64 %8, 1
  %10 = trunc i64 %9 to i8
  %11 = and i64 %8, 1
  %.not = icmp eq i64 %11, 0
  br i1 %.not, label %12, label %lean_dec.exit18

12:                                               ; preds = %7
  %13 = load i32, ptr %0, align 4, !tbaa !8
  %14 = icmp sgt i32 %13, 1
  br i1 %14, label %15, label %17, !prof !11

15:                                               ; preds = %12
  %16 = add nsw i32 %13, -1
  store i32 %16, ptr %0, align 4, !tbaa !8
  br label %lean_dec.exit18

17:                                               ; preds = %12
  %.not.i = icmp eq i32 %13, 0
  br i1 %.not.i, label %lean_dec.exit18, label %18

18:                                               ; preds = %17
  tail call void @lean_dec_ref_cold(ptr noundef nonnull %0) #4
  br label %lean_dec.exit18

lean_dec.exit18:                                  ; preds = %18, %17, %15, %7
  %19 = tail call zeroext i8 @l_Lean_Expr_isApp(ptr noundef %1) #4
  %20 = icmp eq i8 %19, 0
  br i1 %20, label %21, label %28

21:                                               ; preds = %lean_dec.exit18
  tail call void @lean_inc_heartbeat() #4
  %22 = tail call noalias ptr @mi_malloc_small(i64 noundef 24) #4
  %23 = icmp eq ptr %22, null
  br i1 %23, label %24, label %lean_alloc_ctor.exit.i

24:                                               ; preds = %21
  tail call void @lean_internal_panic_out_of_memory() #5
  unreachable

lean_alloc_ctor.exit.i:                           ; preds = %21
  %25 = getelementptr inbounds nuw i8, ptr %22, i64 4
  store i32 1, ptr %22, align 4, !tbaa !8
  store i32 131096, ptr %25, align 4
  %26 = getelementptr inbounds nuw i8, ptr %22, i64 8
  store ptr inttoptr (i64 1 to ptr), ptr %26, align 8, !tbaa !4
  %27 = getelementptr inbounds nuw i8, ptr %22, i64 16
  store ptr %6, ptr %27, align 8, !tbaa !4
  br label %l_Lean_PrettyPrinter_Delaborator_parentProj_x3f.exit

28:                                               ; preds = %lean_dec.exit18
  %29 = tail call ptr @l_Lean_PrettyPrinter_Delaborator_parentProj_x3f___lambda__1(ptr noundef %1, i8 noundef zeroext %10, ptr nonnull poison, ptr noundef %2, ptr noundef %3, ptr noundef %4, ptr noundef %5, ptr noundef %6)
  br label %l_Lean_PrettyPrinter_Delaborator_parentProj_x3f.exit

l_Lean_PrettyPrinter_Delaborator_parentProj_x3f.exit: ; preds = %lean_alloc_ctor.exit.i, %28
  %.0.i = phi ptr [ %22, %lean_alloc_ctor.exit.i ], [ %29, %28 ]
  %30 = ptrtoint ptr %5 to i64
  %31 = and i64 %30, 1
  %.not29 = icmp eq i64 %31, 0
  br i1 %.not29, label %32, label %lean_dec.exit17

32:                                               ; preds = %l_Lean_PrettyPrinter_Delaborator_parentProj_x3f.exit
  %33 = load i32, ptr %5, align 4, !tbaa !8
  %34 = icmp sgt i32 %33, 1
  br i1 %34, label %35, label %37, !prof !11

35:                                               ; preds = %32
  %36 = add nsw i32 %33, -1
  store i32 %36, ptr %5, align 4, !tbaa !8
  br label %lean_dec.exit17

37:                                               ; preds = %32
  %.not.i19 = icmp eq i32 %33, 0
  br i1 %.not.i19, label %lean_dec.exit17, label %38

38:                                               ; preds = %37
  tail call void @lean_dec_ref_cold(ptr noundef nonnull %5) #4
  br label %lean_dec.exit17

lean_dec.exit17:                                  ; preds = %38, %37, %35, %l_Lean_PrettyPrinter_Delaborator_parentProj_x3f.exit
  %39 = ptrtoint ptr %4 to i64
  %40 = and i64 %39, 1
  %.not30 = icmp eq i64 %40, 0
  br i1 %.not30, label %41, label %lean_dec.exit16

41:                                               ; preds = %lean_dec.exit17
  %42 = load i32, ptr %4, align 4, !tbaa !8
  %43 = icmp sgt i32 %42, 1
  br i1 %43, label %44, label %46, !prof !11

44:                                               ; preds = %41
  %45 = add nsw i32 %42, -1
  store i32 %45, ptr %4, align 4, !tbaa !8
  br label %lean_dec.exit16

46:                                               ; preds = %41
  %.not.i21 = icmp eq i32 %42, 0
  br i1 %.not.i21, label %lean_dec.exit16, label %47

47:                                               ; preds = %46
  tail call void @lean_dec_ref_cold(ptr noundef nonnull %4) #4
  br label %lean_dec.exit16

lean_dec.exit16:                                  ; preds = %47, %46, %44, %lean_dec.exit17
  %48 = ptrtoint ptr %3 to i64
  %49 = and i64 %48, 1
  %.not31 = icmp eq i64 %49, 0
  br i1 %.not31, label %50, label %lean_dec.exit15

50:                                               ; preds = %lean_dec.exit16
  %51 = load i32, ptr %3, align 4, !tbaa !8
  %52 = icmp sgt i32 %51, 1
  br i1 %52, label %53, label %55, !prof !11

53:                                               ; preds = %50
  %54 = add nsw i32 %51, -1
  store i32 %54, ptr %3, align 4, !tbaa !8
  br label %lean_dec.exit15

55:                                               ; preds = %50
  %.not.i23 = icmp eq i32 %51, 0
  br i1 %.not.i23, label %lean_dec.exit15, label %56

56:                                               ; preds = %55
  tail call void @lean_dec_ref_cold(ptr noundef nonnull %3) #4
  br label %lean_dec.exit15

lean_dec.exit15:                                  ; preds = %56, %55, %53, %lean_dec.exit16
  %57 = ptrtoint ptr %2 to i64
  %58 = and i64 %57, 1
  %.not32 = icmp eq i64 %58, 0
  br i1 %.not32, label %59, label %lean_dec.exit14

59:                                               ; preds = %lean_dec.exit15
  %60 = load i32, ptr %2, align 4, !tbaa !8
  %61 = icmp sgt i32 %60, 1
  br i1 %61, label %62, label %64, !prof !11

62:                                               ; preds = %59
  %63 = add nsw i32 %60, -1
  store i32 %63, ptr %2, align 4, !tbaa !8
  br label %lean_dec.exit14

64:                                               ; preds = %59
  %.not.i25 = icmp eq i32 %60, 0
  br i1 %.not.i25, label %lean_dec.exit14, label %65

65:                                               ; preds = %64
  tail call void @lean_dec_ref_cold(ptr noundef nonnull %2) #4
  br label %lean_dec.exit14

lean_dec.exit14:                                  ; preds = %65, %64, %62, %lean_dec.exit15
  %66 = ptrtoint ptr %1 to i64
  %67 = and i64 %66, 1
  %.not33 = icmp eq i64 %67, 0
  br i1 %.not33, label %68, label %lean_dec.exit

68:                                               ; preds = %lean_dec.exit14
  %69 = load i32, ptr %1, align 4, !tbaa !8
  %70 = icmp sgt i32 %69, 1
  br i1 %70, label %71, label %73, !prof !11

71:                                               ; preds = %68
  %72 = add nsw i32 %69, -1
  store i32 %72, ptr %1, align 4, !tbaa !8
  br label %lean_dec.exit

73:                                               ; preds = %68
  %.not.i27 = icmp eq i32 %69, 0
  br i1 %.not.i27, label %lean_dec.exit, label %74

74:                                               ; preds = %73
  tail call void @lean_dec_ref_cold(ptr noundef nonnull %1) #4
  br label %lean_dec.exit

lean_dec.exit:                                    ; preds = %74, %73, %71, %lean_dec.exit14
  ret ptr %.0.i
}